; ModuleID = '52/4979.c'
source_filename = "52/4979.c"
target datalayout = "e-m:e-p270:32:32-p271:32:32-p272:64:64-i64:64-f80:128-n8:16:32:64-S128"
target triple = "x86_64-pc-linux-gnu"

@.str = private unnamed_addr constant [5 x i8] c"%d%d\00", align 1
@.str.1 = private unnamed_addr constant [3 x i8] c"%d\00", align 1
@.str.2 = private unnamed_addr constant [4 x i8] c" %d\00", align 1
@.str.3 = private unnamed_addr constant [2 x i8] c"\0A\00", align 1

; Function Attrs: noinline nounwind uwtable
define dso_local i32 @main() #0 {
  %1 = alloca i32, align 4
  %2 = alloca i32, align 4
  %3 = alloca i32, align 4
  %4 = alloca i32, align 4
  %5 = alloca [100 x i32], align 16
  %6 = alloca i32*, align 8
  %7 = alloca [100 x i32], align 16
  store i32 0, i32* %1, align 4
  store i32* null, i32** %6, align 8
  %8 = call i32 (i8*, ...) @__isoc99_scanf(i8* getelementptr inbounds ([5 x i8], [5 x i8]* @.str, i64 0, i64 0), i32* %2, i32* %3)
  store i32 0, i32* %4, align 4
  br label %9

9:                                                ; preds = %18, %0
  %10 = load i32, i32* %4, align 4
  %11 = load i32, i32* %2, align 4
  %12 = icmp slt i32 %10, %11
  br i1 %12, label %13, label %21

13:                                               ; preds = %9
  %14 = load i32, i32* %4, align 4
  %15 = sext i32 %14 to i64
  %16 = getelementptr inbounds [100 x i32], [100 x i32]* %5, i64 0, i64 %15
  %17 = call i32 (i8*, ...) @__isoc99_scanf(i8* getelementptr inbounds ([3 x i8], [3 x i8]* @.str.1, i64 0, i64 0), i32* %16)
  br label %18

18:                                               ; preds = %13
  %19 = load i32, i32* %4, align 4
  %20 = add nsw i32 %19, 1
  store i32 %20, i32* %4, align 4
  br label %9

21:                                               ; preds = %9
  store i32 0, i32* %4, align 4
  br label %22

22:                                               ; preds = %39, %21
  %23 = load i32, i32* %4, align 4
  %24 = load i32, i32* %2, align 4
  %25 = load i32, i32* %3, align 4
  %26 = sub nsw i32 %24, %25
  %27 = icmp slt i32 %23, %26
  br i1 %27, label %28, label %42

28:                                               ; preds = %22
  %29 = load i32, i32* %4, align 4
  %30 = sext i32 %29 to i64
  %31 = getelementptr inbounds [100 x i32], [100 x i32]* %5, i64 0, i64 %30
  store i32* %31, i32** %6, align 8
  %32 = load i32*, i32** %6, align 8
  %33 = load i32, i32* %32, align 4
  %34 = load i32, i32* %4, align 4
  %35 = load i32, i32* %3, align 4
  %36 = add nsw i32 %34, %35
  %37 = sext i32 %36 to i64
  %38 = getelementptr inbounds [100 x i32], [100 x i32]* %7, i64 0, i64 %37
  store i32 %33, i32* %38, align 4
  br label %39

39:                                               ; preds = %28
  %40 = load i32, i32* %4, align 4
  %41 = add nsw i32 %40, 1
  store i32 %41, i32* %4, align 4
  br label %22

42:                                               ; preds = %22
  %43 = load i32, i32* %2, align 4
  %44 = load i32, i32* %3, align 4
  %45 = sub nsw i32 %43, %44
  store i32 %45, i32* %4, align 4
  br label %46

46:                                               ; preds = %63, %42
  %47 = load i32, i32* %4, align 4
  %48 = load i32, i32* %2, align 4
  %49 = icmp slt i32 %47, %48
  br i1 %49, label %50, label %66

50:                                               ; preds = %46
  %51 = load i32, i32* %4, align 4
  %52 = sext i32 %51 to i64
  %53 = getelementptr inbounds [100 x i32], [100 x i32]* %5, i64 0, i64 %52
  store i32* %53, i32** %6, align 8
  %54 = load i32*, i32** %6, align 8
  %55 = load i32, i32* %54, align 4
  %56 = load i32, i32* %4, align 4
  %57 = load i32, i32* %3, align 4
  %58 = add nsw i32 %56, %57
  %59 = load i32, i32* %2, align 4
  %60 = sub nsw i32 %58, %59
  %61 = sext i32 %60 to i64
  %62 = getelementptr inbounds [100 x i32], [100 x i32]* %7, i64 0, i64 %61
  store i32 %55, i32* %62, align 4
  br label %63

63:                                               ; preds = %50
  %64 = load i32, i32* %4, align 4
  %65 = add nsw i32 %64, 1
  store i32 %65, i32* %4, align 4
  br label %46

66:                                               ; preds = %46
  %67 = getelementptr inbounds [100 x i32], [100 x i32]* %7, i64 0, i64 0
  %68 = load i32, i32* %67, align 16
  %69 = call i32 (i8*, ...) @printf(i8* getelementptr inbounds ([3 x i8], [3 x i8]* @.str.1, i64 0, i64 0), i32 %68)
  store i32 1, i32* %4, align 4
  br label %70

70:                                               ; preds = %80, %66
  %71 = load i32, i32* %4, align 4
  %72 = load i32, i32* %2, align 4
  %73 = icmp slt i32 %71, %72
  br i1 %73, label %74, label %83

74:                                               ; preds = %70
  %75 = load i32, i32* %4, align 4
  %76 = sext i32 %75 to i64
  %77 = getelementptr inbounds [100 x i32], [100 x i32]* %7, i64 0, i64 %76
  %78 = load i32, i32* %77, align 4
  %79 = call i32 (i8*, ...) @printf(i8* getelementptr inbounds ([4 x i8], [4 x i8]* @.str.2, i64 0, i64 0), i32 %78)
  br label %80

80:                                               ; preds = %74
  %81 = load i32, i32* %4, align 4
  %82 = add nsw i32 %81, 1
  store i32 %82, i32* %4, align 4
  br label %70

83:                                               ; preds = %70
  %84 = call i32 (i8*, ...) @printf(i8* getelementptr inbounds ([2 x i8], [2 x i8]* @.str.3, i64 0, i64 0))
  ret i32 0
}

declare dso_local i32 @__isoc99_scanf(i8*, ...) #1

declare dso_local i32 @printf(i8*, ...) #1


!llvm.module.flags = !{!0}
!llvm.ident = !{!1}

!0 = !{i32 1, !"wchar_size", i32 4}
!1 = !{!"clang version 10.0.0-4ubuntu1 "}
